; Function Attrs: mustprogress nofree norecurse nosync nounwind willreturn memory(argmem: read) uwtable
define hidden noundef i32 @_ZNK8FrameMap19sp_offset_for_spillEi(ptr nocapture noundef nonnull readonly align 8 dereferenceable(40) %0, i32 noundef %1) local_unnamed_addr #2 align 2 {
  %3 = getelementptr inbounds i8, ptr %0, i64 16
  %4 = load i32, ptr %3, align 8
  %5 = add i32 %4, 7
  %6 = and i32 %5, -8
  %7 = shl nsw i32 %1, 2
  %8 = add nsw i32 %6, %7
  ret i32 %8
}